; Function Attrs: mustprogress uwtable
define noundef zeroext i1 @_ZNK10open_spiel10backgammon15BackgammonState9AllInHomeEi(ptr nocapture noundef nonnull readonly align 8 dereferenceable(216) %0, i32 noundef %1) local_unnamed_addr #4 align 2 personality ptr @__gxx_personality_v0 {
  %3 = alloca i32, align 4
  %4 = alloca i32, align 4
  %5 = alloca %"class.std::__cxx11::basic_string", align 8
  %6 = alloca i32, align 4
  %7 = alloca i32, align 4
  %8 = alloca i32, align 4
  %9 = alloca %"class.std::__cxx11::basic_string", align 8
  %10 = alloca i32, align 4
  %11 = getelementptr inbounds nuw i8, ptr %0, i64 120
  %12 = sext i32 %1 to i64
  %13 = load ptr, ptr %11, align 8
  %14 = getelementptr inbounds i32, ptr %13, i64 %12
  %15 = load i32, ptr %14, align 4
  %16 = icmp sgt i32 %15, 0
  br i1 %16, label %.loopexit, label %17

17:                                               ; preds = %2
  store i32 %1, ptr %3, align 4
  store i32 0, ptr %4, align 4
  %18 = icmp sgt i32 %1, -1
  br i1 %18, label %23, label %19

19:                                               ; preds = %17
  store i32 665, ptr %6, align 4
  call void @_ZN10open_spiel8internal11SpielStrCatIJRA140_KcRA2_S2_iS6_RA12_S2_RA8_S2_RA4_S2_RiRA7_S2_SD_EEENSt7__cxx1112basic_stringIcSt11char_traitsIcESaIcEEEDpOT_(ptr dead_on_unwind nonnull writable sret(%"class.std::__cxx11::basic_string") align 8 %5, ptr noundef nonnull align 1 dereferenceable(140) @.str.34, ptr noundef nonnull align 1 dereferenceable(2) @.str.35, ptr noundef nonnull align 4 dereferenceable(4) %6, ptr noundef nonnull align 1 dereferenceable(2) @.str.27, ptr noundef nonnull align 1 dereferenceable(12) @.str.36, ptr noundef nonnull align 1 dereferenceable(8) @.str.37, ptr noundef nonnull align 1 dereferenceable(4) @.str.38, ptr noundef nonnull align 4 dereferenceable(4) %3, ptr noundef nonnull align 1 dereferenceable(7) @.str.39, ptr noundef nonnull align 4 dereferenceable(4) %4)
  invoke void @_ZN10open_spiel15SpielFatalErrorERKNSt7__cxx1112basic_stringIcSt11char_traitsIcESaIcEEE(ptr noundef nonnull align 8 dereferenceable(32) %5) #29
          to label %20 unwind label %21

20:                                               ; preds = %19
  unreachable

21:                                               ; preds = %19
  %22 = landingpad { ptr, i32 }
          cleanup
  br label %40

23:                                               ; preds = %17
  store i32 %1, ptr %7, align 4
  store i32 1, ptr %8, align 4
  %24 = icmp ult i32 %1, 2
  br i1 %24, label %29, label %25

25:                                               ; preds = %23
  store i32 666, ptr %10, align 4
  call void @_ZN10open_spiel8internal11SpielStrCatIJRA140_KcRA2_S2_iS6_RA12_S2_RA8_S2_RA4_S2_RiRA7_S2_SD_EEENSt7__cxx1112basic_stringIcSt11char_traitsIcESaIcEEEDpOT_(ptr dead_on_unwind nonnull writable sret(%"class.std::__cxx11::basic_string") align 8 %9, ptr noundef nonnull align 1 dereferenceable(140) @.str.34, ptr noundef nonnull align 1 dereferenceable(2) @.str.35, ptr noundef nonnull align 4 dereferenceable(4) %10, ptr noundef nonnull align 1 dereferenceable(2) @.str.27, ptr noundef nonnull align 1 dereferenceable(12) @.str.89, ptr noundef nonnull align 1 dereferenceable(8) @.str.37, ptr noundef nonnull align 1 dereferenceable(4) @.str.38, ptr noundef nonnull align 4 dereferenceable(4) %7, ptr noundef nonnull align 1 dereferenceable(7) @.str.61, ptr noundef nonnull align 4 dereferenceable(4) %8)
  invoke void @_ZN10open_spiel15SpielFatalErrorERKNSt7__cxx1112basic_stringIcSt11char_traitsIcESaIcEEE(ptr noundef nonnull align 8 dereferenceable(32) %9) #29
          to label %26 unwind label %27

26:                                               ; preds = %25
  unreachable

27:                                               ; preds = %25
  %28 = landingpad { ptr, i32 }
          cleanup
  br label %40

29:                                               ; preds = %23
  %30 = icmp eq i32 %1, 0
  %31 = select i1 %30, i64 0, i64 6
  %32 = getelementptr inbounds nuw i8, ptr %0, i64 168
  %33 = load ptr, ptr %32, align 8
  %34 = getelementptr inbounds %"class.std::vector.6", ptr %33, i64 %12
  %35 = load ptr, ptr %34, align 8
  %wide.trip.count = select i1 %30, i64 18, i64 24
  br label %36

36:                                               ; preds = %36, %29
  %indvars.iv = phi i64 [ %31, %29 ], [ %indvars.iv.next, %36 ]
  %37 = getelementptr inbounds i32, ptr %35, i64 %indvars.iv
  %38 = load i32, ptr %37, align 4
  %39 = icmp slt i32 %38, 1
  %indvars.iv.next = add nuw nsw i64 %indvars.iv, 1
  %exitcond.not = icmp ne i64 %indvars.iv.next, %wide.trip.count
  %or.cond.not = select i1 %39, i1 %exitcond.not, i1 false
  br i1 %or.cond.not, label %36, label %.loopexit, !llvm.loop !31

.loopexit:                                        ; preds = %36, %2
  %.014 = phi i1 [ false, %2 ], [ %39, %36 ]
  ret i1 %.014

40:                                               ; preds = %27, %21
  %.sink = phi ptr [ %9, %27 ], [ %5, %21 ]
  %.pn = phi { ptr, i32 } [ %28, %27 ], [ %22, %21 ]
  call void @_ZNSt7__cxx1112basic_stringIcSt11char_traitsIcESaIcEED1Ev(ptr noundef nonnull align 8 dereferenceable(32) %.sink) #30
  resume { ptr, i32 } %.pn
}